target datalayout = "e-m:e-p270:32:32-p271:32:32-p272:64:64-i64:64-i128:128-f80:128-n8:16:32:64-S128"
target triple = "x86_64-pc-linux-gnu"

%"class.icu_77::UObject" = type { ptr }
%"class.icu_77::UnicodeString" = type { %"class.icu_77::Replaceable", %"union.icu_77::UnicodeString::StackBufferOrFields" }
%"class.icu_77::Replaceable" = type { %"class.icu_77::UObject" }
%"union.icu_77::UnicodeString::StackBufferOrFields" = type { %struct.anon.0, [32 x i8] }
%struct.anon.0 = type { i16, i32, i32, ptr }
%"class.icu_77::LocalPointerBase" = type { ptr }
%"class.icu_77::LocalPointer" = type { %"class.icu_77::LocalPointerBase" }
%"class.icu_77::ConstChar16Ptr" = type { ptr }
%struct.UCaseMap = type { ptr, [32 x i8], i32, i32 }

; Function Attrs: mustprogress nounwind uwtable
define linkonce_odr void @_ZN6icu_7716LocalPointerBaseINS_13BreakIteratorEED2Ev(ptr noundef nonnull align 8 dereferenceable(8) %0) unnamed_addr #0 comdat align 2 {
  %2 = alloca ptr, align 8
  store ptr %0, ptr %2, align 8, !tbaa !58
  ret void
}

; Function Attrs: mustprogress nounwind uwtable
define linkonce_odr void @_ZN6icu_7716LocalPointerBaseINS_13BreakIteratorEEC2EPS1_(ptr noundef nonnull align 8 dereferenceable(8) %0, ptr noundef %1) unnamed_addr #0 comdat align 2 {
  %3 = alloca ptr, align 8
  %4 = alloca ptr, align 8
  store ptr %0, ptr %3, align 8, !tbaa !58
  store ptr %1, ptr %4, align 8, !tbaa !8
  %5 = load ptr, ptr %3, align 8
  %6 = getelementptr inbounds nuw %"class.icu_77::LocalPointerBase", ptr %5, i32 0, i32 0
  %7 = load ptr, ptr %4, align 8, !tbaa !8
  store ptr %7, ptr %6, align 8, !tbaa !39
  ret void
}

; Function Attrs: inlinehint mustprogress nounwind uwtable
define linkonce_odr void @_ZN6icu_7714ConstChar16PtrD2Ev(ptr noundef nonnull align 8 dereferenceable(8) %0) unnamed_addr #4 comdat align 2 {
  %2 = alloca ptr, align 8
  store ptr %0, ptr %2, align 8, !tbaa !45
  %3 = load ptr, ptr %2, align 8
  %4 = getelementptr inbounds nuw %"class.icu_77::ConstChar16Ptr", ptr %3, i32 0, i32 0
  %5 = load ptr, ptr %4, align 8, !tbaa !47
  call void asm sideeffect "", "rm,~{memory},~{dirflag},~{fpsr},~{flags}"(ptr %5) #8, !srcloc !49
  ret void
}

; Function Attrs: inlinehint mustprogress nounwind uwtable
define linkonce_odr void @_ZN6icu_7714ConstChar16PtrC2EPKDs(ptr noundef nonnull align 8 dereferenceable(8) %0, ptr noundef %1) unnamed_addr #4 comdat align 2 {
  %3 = alloca ptr, align 8
  %4 = alloca ptr, align 8
  store ptr %0, ptr %3, align 8, !tbaa !45
  store ptr %1, ptr %4, align 8, !tbaa !41
  %5 = load ptr, ptr %3, align 8
  %6 = getelementptr inbounds nuw %"class.icu_77::ConstChar16Ptr", ptr %5, i32 0, i32 0
  %7 = load ptr, ptr %4, align 8, !tbaa !41
  store ptr %7, ptr %6, align 8, !tbaa !47
  ret void
}

; Function Attrs: mustprogress nounwind uwtable
define linkonce_odr noundef ptr @_ZN6icu_7716LocalPointerBaseINS_13BreakIteratorEE6orphanEv(ptr noundef nonnull align 8 dereferenceable(8) %0) #0 comdat align 2 {
  %2 = alloca ptr, align 8
  %3 = alloca ptr, align 8
  store ptr %0, ptr %2, align 8, !tbaa !58
  %4 = load ptr, ptr %2, align 8
  call void @llvm.lifetime.start.p0(i64 8, ptr %3) #8
  %5 = getelementptr inbounds nuw %"class.icu_77::LocalPointerBase", ptr %4, i32 0, i32 0
  %6 = load ptr, ptr %5, align 8, !tbaa !39
  store ptr %6, ptr %3, align 8, !tbaa !8
  %7 = getelementptr inbounds nuw %"class.icu_77::LocalPointerBase", ptr %4, i32 0, i32 0
  store ptr null, ptr %7, align 8, !tbaa !39
  %8 = load ptr, ptr %3, align 8, !tbaa !8
  call void @llvm.lifetime.end.p0(i64 8, ptr %3) #8
  ret ptr %8
}

; Function Attrs: mustprogress nounwind uwtable
define linkonce_odr void @_ZN6icu_7712LocalPointerINS_13BreakIteratorEED2Ev(ptr noundef nonnull align 8 dereferenceable(8) %0) unnamed_addr #0 comdat align 2 {
  %2 = alloca ptr, align 8
  store ptr %0, ptr %2, align 8, !tbaa !35
  %3 = load ptr, ptr %2, align 8
  %4 = getelementptr inbounds nuw %"class.icu_77::LocalPointerBase", ptr %3, i32 0, i32 0
  %5 = load ptr, ptr %4, align 8, !tbaa !39
  %6 = icmp eq ptr %5, null
  br i1 %6, label %11, label %7

7:                                                ; preds = %1
  %8 = load ptr, ptr %5, align 8, !tbaa !37
  %9 = getelementptr inbounds ptr, ptr %8, i64 1
  %10 = load ptr, ptr %9, align 8
  call void %10(ptr noundef nonnull align 8 dereferenceable(32) %5) #8
  br label %11

11:                                               ; preds = %7, %1
  call void @_ZN6icu_7716LocalPointerBaseINS_13BreakIteratorEED2Ev(ptr noundef nonnull align 8 dereferenceable(8) %3) #8
  ret void
}

; Function Attrs: mustprogress uwtable
define linkonce_odr void @_ZN6icu_7712LocalPointerINS_13BreakIteratorEEC2EPS1_(ptr noundef nonnull align 8 dereferenceable(8) %0, ptr noundef %1) unnamed_addr #3 comdat align 2 {
  %3 = alloca ptr, align 8
  %4 = alloca ptr, align 8
  store ptr %0, ptr %3, align 8, !tbaa !35
  store ptr %1, ptr %4, align 8, !tbaa !8
  %5 = load ptr, ptr %3, align 8
  %6 = load ptr, ptr %4, align 8, !tbaa !8
  call void @_ZN6icu_7716LocalPointerBaseINS_13BreakIteratorEEC2EPS1_(ptr noundef nonnull align 8 dereferenceable(8) %5, ptr noundef %6)
  ret void
}

; Function Attrs: inlinehint mustprogress nounwind uwtable
define internal noundef signext i8 @_ZL9U_FAILURE10UErrorCode(i32 noundef %0) #4 {
  %2 = alloca i32, align 4
  store i32 %0, ptr %2, align 4, !tbaa !13
  %3 = load i32, ptr %2, align 4, !tbaa !13
  %4 = icmp sgt i32 %3, 0
  %5 = zext i1 %4 to i8
  ret i8 %5
}

; Function Attrs: mustprogress uwtable
define i32 @ucasemap_toTitle_77(ptr noundef %0, ptr noundef %1, i32 noundef %2, ptr noundef %3, i32 noundef %4, ptr noundef %5) #3 personality ptr @__gxx_personality_v0 {
  %7 = alloca i32, align 4
  %8 = alloca ptr, align 8
  %9 = alloca ptr, align 8
  %10 = alloca i32, align 4
  %11 = alloca ptr, align 8
  %12 = alloca i32, align 4
  %13 = alloca ptr, align 8
  %14 = alloca %"class.icu_77::LocalPointer", align 8
  %15 = alloca ptr, align 8
  %16 = alloca ptr, align 8
  %17 = alloca i32, align 4
  %18 = alloca i32, align 4
  %19 = alloca %"class.icu_77::UnicodeString", align 8
  %20 = alloca %"class.icu_77::ConstChar16Ptr", align 8
  store ptr %0, ptr %8, align 8, !tbaa !52
  store ptr %1, ptr %9, align 8, !tbaa !41
  store i32 %2, ptr %10, align 4, !tbaa !28
  store ptr %3, ptr %11, align 8, !tbaa !41
  store i32 %4, ptr %12, align 4, !tbaa !28
  store ptr %5, ptr %13, align 8, !tbaa !12
  %21 = load ptr, ptr %13, align 8, !tbaa !12
  %22 = load i32, ptr %21, align 4, !tbaa !13
  %23 = call noundef signext i8 @_ZL9U_FAILURE10UErrorCode(i32 noundef %22)
  %24 = icmp ne i8 %23, 0
  br i1 %24, label %25, label %26

25:                                               ; preds = %6
  store i32 0, ptr %7, align 4
  br label %95

26:                                               ; preds = %6
  %27 = load ptr, ptr %8, align 8, !tbaa !52
  %28 = getelementptr inbounds nuw %struct.UCaseMap, ptr %27, i32 0, i32 0
  %29 = load ptr, ptr %28, align 8, !tbaa !54
  %30 = icmp eq ptr %29, null
  br i1 %30, label %31, label %56

31:                                               ; preds = %26
  call void @llvm.lifetime.start.p0(i64 8, ptr %14) #8
  call void @_ZN6icu_7712LocalPointerINS_13BreakIteratorEEC2EPS1_(ptr noundef nonnull align 8 dereferenceable(8) %14, ptr noundef null)
  call void @llvm.lifetime.start.p0(i64 8, ptr %15) #8
  %32 = load ptr, ptr %8, align 8, !tbaa !52
  %33 = getelementptr inbounds nuw %struct.UCaseMap, ptr %32, i32 0, i32 1
  %34 = getelementptr inbounds [32 x i8], ptr %33, i64 0, i64 0
  %35 = load ptr, ptr %8, align 8, !tbaa !52
  %36 = getelementptr inbounds nuw %struct.UCaseMap, ptr %35, i32 0, i32 3
  %37 = load i32, ptr %36, align 4, !tbaa !56
  %38 = load ptr, ptr %13, align 8, !tbaa !12
  %39 = invoke ptr @ustrcase_getTitleBreakIterator_77(ptr noundef null, ptr noundef %34, i32 noundef %37, ptr noundef null, ptr noundef nonnull align 8 dereferenceable(8) %14, ptr noundef nonnull align 4 dereferenceable(4) %38)
          to label %40 unwind label %44

40:                                               ; preds = %31
  store ptr %39, ptr %15, align 8, !tbaa !8
  %41 = load ptr, ptr %15, align 8, !tbaa !8
  %42 = icmp eq ptr %41, null
  br i1 %42, label %43, label %48

43:                                               ; preds = %40
  store i32 0, ptr %7, align 4
  store i32 1, ptr %18, align 4
  br label %53

44:                                               ; preds = %48, %31
  %45 = landingpad { ptr, i32 }
          cleanup
  %46 = extractvalue { ptr, i32 } %45, 0
  store ptr %46, ptr %16, align 8
  %47 = extractvalue { ptr, i32 } %45, 1
  store i32 %47, ptr %17, align 4
  call void @llvm.lifetime.end.p0(i64 8, ptr %15) #8
  call void @_ZN6icu_7712LocalPointerINS_13BreakIteratorEED2Ev(ptr noundef nonnull align 8 dereferenceable(8) %14) #8
  call void @llvm.lifetime.end.p0(i64 8, ptr %14) #8
  br label %97

48:                                               ; preds = %40
  %49 = invoke noundef ptr @_ZN6icu_7716LocalPointerBaseINS_13BreakIteratorEE6orphanEv(ptr noundef nonnull align 8 dereferenceable(8) %14)
          to label %50 unwind label %44

50:                                               ; preds = %48
  %51 = load ptr, ptr %8, align 8, !tbaa !52
  %52 = getelementptr inbounds nuw %struct.UCaseMap, ptr %51, i32 0, i32 0
  store ptr %49, ptr %52, align 8, !tbaa !54
  store i32 0, ptr %18, align 4
  br label %53

53:                                               ; preds = %50, %43
  call void @llvm.lifetime.end.p0(i64 8, ptr %15) #8
  call void @_ZN6icu_7712LocalPointerINS_13BreakIteratorEED2Ev(ptr noundef nonnull align 8 dereferenceable(8) %14) #8
  call void @llvm.lifetime.end.p0(i64 8, ptr %14) #8
  %54 = load i32, ptr %18, align 4
  switch i32 %54, label %102 [
    i32 0, label %55
    i32 1, label %95
  ]

55:                                               ; preds = %53
  br label %56

56:                                               ; preds = %55, %26
  call void @llvm.lifetime.start.p0(i64 64, ptr %19) #8
  %57 = load i32, ptr %12, align 4, !tbaa !28
  %58 = icmp slt i32 %57, 0
  %59 = zext i1 %58 to i8
  %60 = load ptr, ptr %11, align 8, !tbaa !41
  call void @_ZN6icu_7714ConstChar16PtrC2EPKDs(ptr noundef nonnull align 8 dereferenceable(8) %20, ptr noundef %60)
  %61 = load i32, ptr %12, align 4, !tbaa !28
  invoke void @_ZN6icu_7713UnicodeStringC1EaNS_14ConstChar16PtrEi(ptr noundef nonnull align 8 dereferenceable(64) %19, i8 noundef signext %59, ptr noundef %20, i32 noundef %61)
          to label %62 unwind label %86

62:                                               ; preds = %56
  call void @_ZN6icu_7714ConstChar16PtrD2Ev(ptr noundef nonnull align 8 dereferenceable(8) %20) #8
  %63 = load ptr, ptr %8, align 8, !tbaa !52
  %64 = getelementptr inbounds nuw %struct.UCaseMap, ptr %63, i32 0, i32 0
  %65 = load ptr, ptr %64, align 8, !tbaa !54
  %66 = load ptr, ptr %65, align 8, !tbaa !37
  %67 = getelementptr inbounds ptr, ptr %66, i64 7
  %68 = load ptr, ptr %67, align 8
  invoke void %68(ptr noundef nonnull align 8 dereferenceable(32) %65, ptr noundef nonnull align 8 dereferenceable(64) %19)
          to label %69 unwind label %90

69:                                               ; preds = %62
  %70 = load ptr, ptr %8, align 8, !tbaa !52
  %71 = getelementptr inbounds nuw %struct.UCaseMap, ptr %70, i32 0, i32 2
  %72 = load i32, ptr %71, align 8, !tbaa !57
  %73 = load ptr, ptr %8, align 8, !tbaa !52
  %74 = getelementptr inbounds nuw %struct.UCaseMap, ptr %73, i32 0, i32 3
  %75 = load i32, ptr %74, align 4, !tbaa !56
  %76 = load ptr, ptr %8, align 8, !tbaa !52
  %77 = getelementptr inbounds nuw %struct.UCaseMap, ptr %76, i32 0, i32 0
  %78 = load ptr, ptr %77, align 8, !tbaa !54
  %79 = load ptr, ptr %9, align 8, !tbaa !41
  %80 = load i32, ptr %10, align 4, !tbaa !28
  %81 = load ptr, ptr %11, align 8, !tbaa !41
  %82 = load i32, ptr %12, align 4, !tbaa !28
  %83 = load ptr, ptr %13, align 8, !tbaa !12
  %84 = invoke i32 @ustrcase_map_77(i32 noundef %72, i32 noundef %75, ptr noundef %78, ptr noundef %79, i32 noundef %80, ptr noundef %81, i32 noundef %82, ptr noundef @ustrcase_internalToTitle_77, ptr noundef null, ptr noundef nonnull align 4 dereferenceable(4) %83)
          to label %85 unwind label %90

85:                                               ; preds = %69
  store i32 %84, ptr %7, align 4
  store i32 1, ptr %18, align 4
  call void @_ZN6icu_7713UnicodeStringD1Ev(ptr noundef nonnull align 8 dereferenceable(64) %19) #8
  call void @llvm.lifetime.end.p0(i64 64, ptr %19) #8
  br label %95

86:                                               ; preds = %56
  %87 = landingpad { ptr, i32 }
          cleanup
  %88 = extractvalue { ptr, i32 } %87, 0
  store ptr %88, ptr %16, align 8
  %89 = extractvalue { ptr, i32 } %87, 1
  store i32 %89, ptr %17, align 4
  call void @_ZN6icu_7714ConstChar16PtrD2Ev(ptr noundef nonnull align 8 dereferenceable(8) %20) #8
  br label %94

90:                                               ; preds = %69, %62
  %91 = landingpad { ptr, i32 }
          cleanup
  %92 = extractvalue { ptr, i32 } %91, 0
  store ptr %92, ptr %16, align 8
  %93 = extractvalue { ptr, i32 } %91, 1
  store i32 %93, ptr %17, align 4
  call void @_ZN6icu_7713UnicodeStringD1Ev(ptr noundef nonnull align 8 dereferenceable(64) %19) #8
  br label %94

94:                                               ; preds = %90, %86
  call void @llvm.lifetime.end.p0(i64 64, ptr %19) #8
  br label %97

95:                                               ; preds = %85, %53, %25
  %96 = load i32, ptr %7, align 4
  ret i32 %96

97:                                               ; preds = %94, %44
  %98 = load ptr, ptr %16, align 8
  %99 = load i32, ptr %17, align 4
  %100 = insertvalue { ptr, i32 } poison, ptr %98, 0
  %101 = insertvalue { ptr, i32 } %100, i32 %99, 1
  resume { ptr, i32 } %101

102:                                              ; preds = %53
  unreachable
}