; Function Attrs: mustprogress uwtable
define i32 @ucasemap_toTitle_77(ptr noundef %0, ptr noundef %1, i32 noundef %2, ptr noundef %3, i32 noundef %4, ptr noundef %5) local_unnamed_addr #6 personality ptr @__gxx_personality_v0 {
  %7 = alloca %"class.icu_77::LocalPointer", align 8
  %8 = alloca %"class.icu_77::UnicodeString", align 8
  %9 = alloca %"class.icu_77::ConstChar16Ptr", align 8
  %10 = load i32, ptr %5, align 4, !tbaa !3
  %11 = icmp slt i32 %10, 1
  br i1 %11, label %12, label %58

12:                                               ; preds = %6
  %13 = load ptr, ptr %0, align 8, !tbaa !24
  %14 = icmp eq ptr %13, null
  br i1 %14, label %15, label %36

15:                                               ; preds = %12
  call void @llvm.lifetime.start.p0(i64 8, ptr nonnull %7) #10
  store ptr null, ptr %7, align 8, !tbaa !17
  %16 = getelementptr inbounds nuw i8, ptr %0, i64 8
  %17 = getelementptr inbounds nuw i8, ptr %0, i64 44
  %18 = load i32, ptr %17, align 4, !tbaa !26
  %19 = invoke ptr @ustrcase_getTitleBreakIterator_77(ptr noundef null, ptr noundef nonnull %16, i32 noundef %18, ptr noundef null, ptr noundef nonnull align 8 dereferenceable(8) %7, ptr noundef nonnull align 4 dereferenceable(4) %5)
          to label %20 unwind label %22

20:                                               ; preds = %15
  %21 = icmp eq ptr %19, null
  %.pr = load ptr, ptr %7, align 8, !tbaa !17
  br i1 %21, label %30, label %_ZN6icu_7712LocalPointerINS_13BreakIteratorEED2Ev.exit29

22:                                               ; preds = %15
  %23 = landingpad { ptr, i32 }
          cleanup
  %24 = load ptr, ptr %7, align 8, !tbaa !17
  %25 = icmp eq ptr %24, null
  br i1 %25, label %_ZN6icu_7712LocalPointerINS_13BreakIteratorEED2Ev.exit, label %26

26:                                               ; preds = %22
  %27 = load ptr, ptr %24, align 8, !tbaa !15
  %28 = getelementptr inbounds nuw i8, ptr %27, i64 8
  %29 = load ptr, ptr %28, align 8
  tail call void %29(ptr noundef nonnull align 8 dereferenceable(32) %24) #10
  br label %_ZN6icu_7712LocalPointerINS_13BreakIteratorEED2Ev.exit

_ZN6icu_7712LocalPointerINS_13BreakIteratorEED2Ev.exit: ; preds = %22, %26
  call void @llvm.lifetime.end.p0(i64 8, ptr nonnull %7) #10
  br label %59

30:                                               ; preds = %20
  %31 = icmp eq ptr %.pr, null
  br i1 %31, label %_ZN6icu_7712LocalPointerINS_13BreakIteratorEED2Ev.exit29.thread, label %32

32:                                               ; preds = %30
  %33 = load ptr, ptr %.pr, align 8, !tbaa !15
  %34 = getelementptr inbounds nuw i8, ptr %33, i64 8
  %35 = load ptr, ptr %34, align 8
  tail call void %35(ptr noundef nonnull align 8 dereferenceable(32) %.pr) #10
  br label %_ZN6icu_7712LocalPointerINS_13BreakIteratorEED2Ev.exit29.thread

_ZN6icu_7712LocalPointerINS_13BreakIteratorEED2Ev.exit29.thread: ; preds = %30, %32
  call void @llvm.lifetime.end.p0(i64 8, ptr nonnull %7) #10
  br label %58

_ZN6icu_7712LocalPointerINS_13BreakIteratorEED2Ev.exit29: ; preds = %20
  store ptr %.pr, ptr %0, align 8, !tbaa !24
  call void @llvm.lifetime.end.p0(i64 8, ptr nonnull %7) #10
  br label %36

36:                                               ; preds = %_ZN6icu_7712LocalPointerINS_13BreakIteratorEED2Ev.exit29, %12
  call void @llvm.lifetime.start.p0(i64 64, ptr nonnull %8) #10
  %.lobit = lshr i32 %4, 31
  %37 = trunc nuw nsw i32 %.lobit to i8
  store ptr %3, ptr %9, align 8, !tbaa !20
  invoke void @_ZN6icu_7713UnicodeStringC1EaNS_14ConstChar16PtrEi(ptr noundef nonnull align 8 dereferenceable(64) %8, i8 noundef signext %37, ptr noundef nonnull %9, i32 noundef %4)
          to label %38 unwind label %52

38:                                               ; preds = %36
  %39 = load ptr, ptr %9, align 8, !tbaa !20
  call void asm sideeffect "", "rm,~{memory},~{dirflag},~{fpsr},~{flags}"(ptr %39) #10, !srcloc !23
  %40 = load ptr, ptr %0, align 8, !tbaa !24
  %41 = load ptr, ptr %40, align 8, !tbaa !15
  %42 = getelementptr inbounds nuw i8, ptr %41, i64 56
  %43 = load ptr, ptr %42, align 8
  invoke void %43(ptr noundef nonnull align 8 dereferenceable(32) %40, ptr noundef nonnull align 8 dereferenceable(64) %8)
          to label %44 unwind label %55

44:                                               ; preds = %38
  %45 = getelementptr inbounds nuw i8, ptr %0, i64 40
  %46 = load i32, ptr %45, align 8, !tbaa !27
  %47 = getelementptr inbounds nuw i8, ptr %0, i64 44
  %48 = load i32, ptr %47, align 4, !tbaa !26
  %49 = load ptr, ptr %0, align 8, !tbaa !24
  %50 = invoke i32 @ustrcase_map_77(i32 noundef %46, i32 noundef %48, ptr noundef %49, ptr noundef %1, i32 noundef %2, ptr noundef %3, i32 noundef %4, ptr noundef nonnull @ustrcase_internalToTitle_77, ptr noundef null, ptr noundef nonnull align 4 dereferenceable(4) %5)
          to label %51 unwind label %55

51:                                               ; preds = %44
  call void @_ZN6icu_7713UnicodeStringD1Ev(ptr noundef nonnull align 8 dereferenceable(64) %8) #10
  call void @llvm.lifetime.end.p0(i64 64, ptr nonnull %8) #10
  br label %58

52:                                               ; preds = %36
  %53 = landingpad { ptr, i32 }
          cleanup
  %54 = load ptr, ptr %9, align 8, !tbaa !20
  call void asm sideeffect "", "rm,~{memory},~{dirflag},~{fpsr},~{flags}"(ptr %54) #10, !srcloc !23
  br label %57

55:                                               ; preds = %44, %38
  %56 = landingpad { ptr, i32 }
          cleanup
  call void @_ZN6icu_7713UnicodeStringD1Ev(ptr noundef nonnull align 8 dereferenceable(64) %8) #10
  br label %57

57:                                               ; preds = %55, %52
  %.pn = phi { ptr, i32 } [ %56, %55 ], [ %53, %52 ]
  call void @llvm.lifetime.end.p0(i64 64, ptr nonnull %8) #10
  br label %59

58:                                               ; preds = %_ZN6icu_7712LocalPointerINS_13BreakIteratorEED2Ev.exit29.thread, %6, %51
  %.025 = phi i32 [ %50, %51 ], [ 0, %6 ], [ 0, %_ZN6icu_7712LocalPointerINS_13BreakIteratorEED2Ev.exit29.thread ]
  ret i32 %.025

59:                                               ; preds = %57, %_ZN6icu_7712LocalPointerINS_13BreakIteratorEED2Ev.exit
  %.pn.pn = phi { ptr, i32 } [ %.pn, %57 ], [ %23, %_ZN6icu_7712LocalPointerINS_13BreakIteratorEED2Ev.exit ]
  resume { ptr, i32 } %.pn.pn
}